; Function Attrs: mustprogress nounwind uwtable
define internal fastcc void @_ZNSt8_Rb_treeINSt7__cxx1112basic_stringIcSt11char_traitsIcESaIcEEESt4pairIKS5_St3setIS6_IN4llvm16CodeGenInstAliasEiEN12_GLOBAL__N_123AliasPriorityComparatorESaISB_EEESt10_Select1stISG_ESt4lessIS5_ESaISG_EE8_M_eraseEPSt13_Rb_tree_nodeISG_E(ptr noundef %0) unnamed_addr #2 align 2 {
  %.not1 = icmp eq ptr %0, null
  br i1 %.not1, label %._crit_edge, label %.lr.ph

.lr.ph:                                           ; preds = %1, %.lr.ph
  %.02 = phi ptr [ %.0.val, %.lr.ph ], [ %0, %1 ]
  %2 = getelementptr i8, ptr %.02, i64 24
  %.0.val6 = load ptr, ptr %2, align 8
  tail call fastcc void @_ZNSt8_Rb_treeINSt7__cxx1112basic_stringIcSt11char_traitsIcESaIcEEESt4pairIKS5_St3setIS6_IN4llvm16CodeGenInstAliasEiEN12_GLOBAL__N_123AliasPriorityComparatorESaISB_EEESt10_Select1stISG_ESt4lessIS5_ESaISG_EE8_M_eraseEPSt13_Rb_tree_nodeISG_E(ptr noundef %.0.val6)
  %3 = getelementptr i8, ptr %.02, i64 16
  %.0.val = load ptr, ptr %3, align 8
  %4 = getelementptr inbounds nuw i8, ptr %.02, i64 32
  %5 = getelementptr inbounds nuw i8, ptr %.02, i64 80
  %.val.i.i.i.i.i = load ptr, ptr %5, align 8
  tail call fastcc void @_ZNSt8_Rb_treeISt4pairIN4llvm16CodeGenInstAliasEiES3_St9_IdentityIS3_EN12_GLOBAL__N_123AliasPriorityComparatorESaIS3_EE8_M_eraseEPSt13_Rb_tree_nodeIS3_E(ptr noundef %.val.i.i.i.i.i)
  tail call void @_ZNSt7__cxx1112basic_stringIcSt11char_traitsIcESaIcEED1Ev(ptr noundef nonnull align 8 dereferenceable(80) %4) #19
  tail call void @_ZdlPvm(ptr noundef nonnull %.02, i64 noundef 112) #20
  %.not = icmp eq ptr %.0.val, null
  br i1 %.not, label %._crit_edge, label %.lr.ph, !llvm.loop !372

._crit_edge:                                      ; preds = %.lr.ph, %1
  ret void
}